target datalayout = "e-m:e-p270:32:32-p271:32:32-p272:64:64-i64:64-i128:128-f80:128-n8:16:32:64-S128"
target triple = "x86_64-pc-linux-gnu"

%struct.wtap = type { ptr, ptr, i8, i32, i32, ptr, ptr, ptr, i32, ptr, ptr, ptr, ptr, ptr, ptr, ptr, ptr, ptr, ptr, i32, i32, ptr, ptr, ptr, ptr }

@eyesdn_hdr_magic = internal constant [6 x i8] c"EyeSDN", align 1
@eyesdn_file_type_subtype = internal global i32 -1, align 4

; Function Attrs: null_pointer_is_valid sspstrong uwtable
define hidden i32 @eyesdn_open(ptr noundef %0, ptr noundef %1, ptr noundef %2) #0 {
  %4 = alloca i32, align 4
  %5 = alloca ptr, align 8
  %6 = alloca ptr, align 8
  %7 = alloca ptr, align 8
  %8 = alloca [6 x i8], align 1
  %9 = alloca i32, align 4
  store ptr %0, ptr %5, align 8
  store ptr %1, ptr %6, align 8
  store ptr %2, ptr %7, align 8
  call void @llvm.lifetime.start.p0(i64 6, ptr %8) #6
  %10 = load ptr, ptr %5, align 8
  %11 = getelementptr inbounds nuw %struct.wtap, ptr %10, i32 0, i32 0
  %12 = load ptr, ptr %11, align 8
  %13 = load ptr, ptr %6, align 8
  %14 = load ptr, ptr %7, align 8
  %15 = call zeroext i1 @wtap_read_bytes(ptr noundef %12, ptr noundef %8, i32 noundef 6, ptr noundef %13, ptr noundef %14)
  br i1 %15, label %22, label %16

16:                                               ; preds = %3
  %17 = load ptr, ptr %6, align 8
  %18 = load i32, ptr %17, align 4
  %19 = icmp ne i32 %18, -12
  br i1 %19, label %20, label %21

20:                                               ; preds = %16
  store i32 -1, ptr %4, align 4
  store i32 1, ptr %9, align 4
  br label %41

21:                                               ; preds = %16
  store i32 0, ptr %4, align 4
  store i32 1, ptr %9, align 4
  br label %41

22:                                               ; preds = %3
  %23 = getelementptr inbounds [6 x i8], ptr %8, i64 0, i64 0
  %24 = call i32 @memcmp(ptr noundef %23, ptr noundef @eyesdn_hdr_magic, i64 noundef 6) #7
  %25 = icmp ne i32 %24, 0
  br i1 %25, label %26, label %27

26:                                               ; preds = %22
  store i32 0, ptr %4, align 4
  store i32 1, ptr %9, align 4
  br label %41

27:                                               ; preds = %22
  %28 = load ptr, ptr %5, align 8
  %29 = getelementptr inbounds nuw %struct.wtap, ptr %28, i32 0, i32 19
  store i32 -1, ptr %29, align 8
  %30 = load i32, ptr @eyesdn_file_type_subtype, align 4
  %31 = load ptr, ptr %5, align 8
  %32 = getelementptr inbounds nuw %struct.wtap, ptr %31, i32 0, i32 3
  store i32 %30, ptr %32, align 4
  %33 = load ptr, ptr %5, align 8
  %34 = getelementptr inbounds nuw %struct.wtap, ptr %33, i32 0, i32 4
  store i32 0, ptr %34, align 8
  %35 = load ptr, ptr %5, align 8
  %36 = getelementptr inbounds nuw %struct.wtap, ptr %35, i32 0, i32 15
  store ptr @eyesdn_read, ptr %36, align 8
  %37 = load ptr, ptr %5, align 8
  %38 = getelementptr inbounds nuw %struct.wtap, ptr %37, i32 0, i32 16
  store ptr @eyesdn_seek_read, ptr %38, align 8
  %39 = load ptr, ptr %5, align 8
  %40 = getelementptr inbounds nuw %struct.wtap, ptr %39, i32 0, i32 20
  store i32 6, ptr %40, align 4
  store i32 1, ptr %4, align 4
  store i32 1, ptr %9, align 4
  br label %41

41:                                               ; preds = %27, %26, %21, %20
  call void @llvm.lifetime.end.p0(i64 6, ptr %8) #6
  %42 = load i32, ptr %4, align 4
  ret i32 %42
}