; Function Attrs: null_pointer_is_valid sspstrong uwtable
define hidden range(i32 -1, 2) i32 @eyesdn_open(ptr noundef captures(none) %0, ptr noundef %1, ptr noundef %2) local_unnamed_addr #0 {
  %4 = alloca [6 x i8], align 1
  call void @llvm.lifetime.start.p0(i64 6, ptr nonnull %4) #5
  %5 = load ptr, ptr %0, align 8
  %6 = call zeroext i1 @wtap_read_bytes(ptr noundef %5, ptr noundef nonnull %4, i32 noundef 6, ptr noundef %1, ptr noundef %2)
  br i1 %6, label %9, label %7

7:                                                ; preds = %3
  %8 = load i32, ptr %1, align 4
  %.not = icmp ne i32 %8, -12
  %. = sext i1 %.not to i32
  br label %18

9:                                                ; preds = %3
  %bcmp = call i32 @bcmp(ptr noundef nonnull dereferenceable(6) %4, ptr noundef nonnull dereferenceable(6) @eyesdn_hdr_magic, i64 6)
  %.not10 = icmp eq i32 %bcmp, 0
  br i1 %.not10, label %10, label %18

10:                                               ; preds = %9
  %11 = getelementptr inbounds nuw i8, ptr %0, i64 144
  store i32 -1, ptr %11, align 8
  %12 = load i32, ptr @eyesdn_file_type_subtype, align 4
  %13 = getelementptr inbounds nuw i8, ptr %0, i64 20
  store i32 %12, ptr %13, align 4
  %14 = getelementptr inbounds nuw i8, ptr %0, i64 24
  store i32 0, ptr %14, align 8
  %15 = getelementptr inbounds nuw i8, ptr %0, i64 112
  store ptr @eyesdn_read, ptr %15, align 8
  %16 = getelementptr inbounds nuw i8, ptr %0, i64 120
  store ptr @eyesdn_seek_read, ptr %16, align 8
  %17 = getelementptr inbounds nuw i8, ptr %0, i64 148
  store i32 6, ptr %17, align 4
  br label %18

18:                                               ; preds = %9, %7, %10
  %.0 = phi i32 [ 1, %10 ], [ %., %7 ], [ 0, %9 ]
  call void @llvm.lifetime.end.p0(i64 6, ptr nonnull %4) #5
  ret i32 %.0
}